(lp0
(VsRNA000004
p1
S'dicF'
p2
S'forward'
p3
I105277
I105306
tp4
a(VsRNA000099
p5
S'omrB'
p6
S'reverse'
p7
I584837
I584868
tp8
a(VsRNA000073
p9
S'omrA'
p10
S'reverse'
p11
I584837
I584868
tp12
a(VsRNA000013
p13
S'gcvB'
p14
S'forward'
p15
I687014
I687047
tp16
a(VsRNA000218
p17
S'micM'
p18
S'forward'
p19
I707538
I707549
tp20
a(VsRNA000150
p21
S'spf'
p22
S'forward'
p23
I789147
I789221
tp24
a(VsRNA000196
p25
S'cyaR'
p26
S'forward'
p27
I849664
I849672
tp28
a(VsRNA000197
p29
S'micA'
p30
S'forward'
p31
I849673
I849695
tp32
a(VsRNA000008
p33
S'micF'
p34
S'forward'
p35
I986196
I986221
tp36
a(VsRNA000009
p37
S'micA'
p38
S'forward'
p39
I1019283
I1019298
tp40
a(VsRNA000183
p41
S'rseX'
p42
S'forward'
p43
I1019284
I1019298
tp44
a(VsRNA000172
p45
S'sgrS'
p46
S'forward'
p47
I1157063
I1157095
tp48
a(VsRNA000007
p49
S'dsrA'
p50
S'reverse'
p51
I1292127
I1292139
tp52
a(VsRNA000012
p53
S'gcvB'
p54
S'forward'
p55
I1299199
I1299219
tp56
a(VsRNA000002
p57
S'rybB'
p58
S'reverse'
p59
I1312031
I1312063
tp60
a(VsRNA000209
p61
S'fnrS'
p62
S'forward'
p63
I1733372
I1733405
tp64
a(VsRNA000205
p65
S'cyaR'
p66
S'forward'
p67
I1820471
I1820484
tp68
a(VsRNA000217
p69
S'ryeB'
p70
S'reverse'
p71
I1921128
I1921231
tp72
a(VsRNA000211
p73
S'fnrS'
p74
S'forward'
p75
I1922976
I1923010
tp76
a(VsRNA000198
p77
S'sibA'
p78
S'forward'
p79
I2151373
I2151432
tp80
a(VsRNA000199
p81
S'sibB'
p82
S'forward'
p83
I2151705
I2151761
tp84
a(VsRNA000097
p85
S'omrB'
p86
S'reverse'
p87
I2244801
I2244826
tp88
a(VsRNA000070
p89
S'omrA'
p90
S'reverse'
p91
I2244801
I2244826
tp92
a(VsRNA000001
p93
S'rybB'
p94
S'reverse'
p95
I2310772
I2310804
tp96
a(VsRNA000182
p97
S'rseX'
p98
S'forward'
p99
I2310772
I2310802
tp100
a(VsRNA000003
p101
S'micC'
p102
S'forward'
p103
I2310786
I2310812
tp104
a(VsRNA000016
p105
S'gcvB'
p106
S'forward'
p107
I2425846
I2425871
tp108
a(VsRNA000194
p109
S'ohsC'
p110
S'forward'
p111
I2698295
I2698313
tp112
a(VsRNA000195
p113
S'ryfD'
p114
S'reverse'
p115
I2732178
I2732200
tp116
a(VsRNA000203
p117
S'cyaR'
p118
S'forward'
p119
I2795035
I2795054
tp120
a(VsRNA000204
p121
S'cyaR'
p122
S'forward'
p123
I2812753
I2812767
tp124
a(VsRNA000152
p125
S'oxyS'
p126
S'reverse'
p127
I2852345
I2852351
tp128
a(VsRNA000153
p129
S'oxyS'
p130
S'reverse'
p131
I2852393
I2852401
tp132
a(VsRNA000214
p133
S'arcZ'
p134
S'forward'
p135
I2865664
I2865695
tp136
a(VsRNA000005
p137
S'rprA'
p138
S'forward'
p139
I2865667
I2865690
tp140
a(VsRNA000006
p141
S'dsrA'
p142
S'reverse'
p143
I2865670
I2865692
tp144
a(VsRNA000216
p145
S'mgrR'
p146
S'reverse'
p147
I2968448
I2968459
tp148
a(VsRNA000200
p149
S'sibC'
p150
S'forward'
p151
I3054912
I3054971
tp152
a(VsRNA000201
p153
S'sibD'
p154
S'reverse'
p155
I3192788
I3192847
tp156
a(VsRNA000202
p157
S'sibE'
p158
S'reverse'
p159
I3193163
I3193222
tp160
a(VsRNA000017
p161
S'gcvB'
p162
S'forward'
p163
I3237940
I3237966
tp164
a(VsRNA000121
p165
S'omrB'
p166
S'reverse'
p167
I3534617
I3534635
tp168
a(VsRNA000096
p169
S'omrA'
p170
S'reverse'
p171
I3534617
I3534635
tp172
a(VsRNA000015
p173
S'gcvB'
p174
S'forward'
p175
I3595600
I3595623
tp176
a(VsRNA000014
p177
S'gcvB'
p178
S'forward'
p179
I3597703
I3597726
tp180
a(VsRNA000149
p181
S'gadY'
p182
S'forward'
p183
I3663750
I3663815
tp184
a(VsRNA000011
p185
S'gcvB'
p186
S'forward'
p187
I3705731
I3705759
tp188
a(VsRNA000215
p189
S'mgrR'
p190
S'reverse'
p191
I3708491
I3708505
tp192
a(VsRNA000220
p193
S'ryhB'
p194
S'reverse'
p195
I3780578
I3780589
tp196
a(VsRNA000177
p197
S'istr-1'
p198
S'reverse'
p199
I3851441
I3851484
tp200
a(VsRNA000178
p201
S'istr-1'
p202
S'reverse'
p203
I3851551
I3851594
tp204
a(VsRNA000148
p205
S'glmZ'
p206
S'forward'
p207
I3911713
I3911731
tp208
a(VsRNA000018
p209
S'gcvB'
p210
S'forward'
p211
I4427861
I4427893
tp212
a.